; Function Attrs: mustprogress uwtable
define void @_ZN17grpc_event_engine12experimental16PosixEventEngine16PosixDNSResolver9LookupSRVEN4absl12lts_2023080212AnyInvocableIFvNS4_8StatusOrISt6vectorINS0_11EventEngine11DNSResolver9SRVRecordESaISA_EEEEEEESt17basic_string_viewIcSt11char_traitsIcEE(ptr nocapture noundef nonnull readonly align 8 dereferenceable(16) %this, ptr noundef %on_resolve, i64 %name.coerce0, ptr %name.coerce1) unnamed_addr #3 align 2 personality ptr @__gxx_personality_v0 {
entry:
  %agg.tmp = alloca %"class.absl::lts_20230802::AnyInvocable.114", align 16
  %dns_resolver_ = getelementptr inbounds i8, ptr %this, i64 8
  %0 = load ptr, ptr %dns_resolver_, align 8
  %manager_.i.i.i = getelementptr inbounds i8, ptr %on_resolve, i64 16
  %1 = load ptr, ptr %manager_.i.i.i, align 16
  call void %1(i1 noundef zeroext false, ptr noundef nonnull %on_resolve, ptr noundef nonnull %agg.tmp) #26
  %manager_5.i.i.i = getelementptr inbounds i8, ptr %agg.tmp, i64 16
  %invoker_.i.i.i = getelementptr inbounds i8, ptr %on_resolve, i64 24
  %2 = load <2 x ptr>, ptr %manager_.i.i.i, align 16
  store <2 x ptr> %2, ptr %manager_5.i.i.i, align 16
  store ptr @_ZN4absl12lts_2023080222internal_any_invocable12EmptyManagerENS1_14FunctionToCallEPNS1_15TypeErasedStateES4_, ptr %manager_.i.i.i, align 16
  store ptr null, ptr %invoker_.i.i.i, align 8
  %vtable = load ptr, ptr %0, align 8
  %vfn = getelementptr inbounds i8, ptr %vtable, i64 32
  %3 = load ptr, ptr %vfn, align 8
  invoke void %3(ptr noundef nonnull align 8 dereferenceable(16) %0, ptr noundef nonnull %agg.tmp, i64 %name.coerce0, ptr %name.coerce1)
          to label %invoke.cont unwind label %lpad

invoke.cont:                                      ; preds = %entry
  %4 = load ptr, ptr %manager_5.i.i.i, align 16
  call void %4(i1 noundef zeroext true, ptr noundef nonnull %agg.tmp, ptr noundef nonnull %agg.tmp) #26
  ret void

lpad:                                             ; preds = %entry
  %5 = landingpad { ptr, i32 }
          cleanup
  %6 = load ptr, ptr %manager_5.i.i.i, align 16
  call void %6(i1 noundef zeroext true, ptr noundef nonnull %agg.tmp, ptr noundef nonnull %agg.tmp) #26
  resume { ptr, i32 } %5
}